target datalayout = "e-m:e-p270:32:32-p271:32:32-p272:64:64-i64:64-i128:128-f80:128-n8:16:32:64-S128"
target triple = "x86_64-pc-linux-gnu"

@.str.5 = private unnamed_addr constant [2 x i8] c"r\00", align 1
@.str.8 = private unnamed_addr constant [47 x i8] c"Could not open filter file\0A%s\0Afor reading: %s.\00", align 1
@.str.9 = private unnamed_addr constant [36 x i8] c"Error reading filter file\0A\22%s\22: %s.\00", align 1

; Function Attrs: null_pointer_is_valid sspstrong uwtable
define zeroext i1 @color_filters_import(ptr noundef %0, ptr noundef %1, ptr noundef %2, ptr noundef %3) #0 {
  %5 = alloca i1, align 1
  %6 = alloca ptr, align 8
  %7 = alloca ptr, align 8
  %8 = alloca ptr, align 8
  %9 = alloca ptr, align 8
  %10 = alloca ptr, align 8
  %11 = alloca i32, align 4
  %12 = alloca i32, align 4
  store ptr %0, ptr %6, align 8
  store ptr %1, ptr %7, align 8
  store ptr %2, ptr %8, align 8
  store ptr %3, ptr %9, align 8
  call void @llvm.lifetime.start.p0(i64 8, ptr %10) #13
  call void @llvm.lifetime.start.p0(i64 4, ptr %11) #13
  %13 = load ptr, ptr %6, align 8
  %14 = call noalias ptr @fopen(ptr noundef %13, ptr noundef @.str.5)
  store ptr %14, ptr %10, align 8
  %15 = icmp eq ptr %14, null
  br i1 %15, label %16, label %23

16:                                               ; preds = %4
  %17 = load ptr, ptr %6, align 8
  %18 = call ptr @__errno_location() #17
  %19 = load i32, ptr %18, align 4
  %20 = call ptr @g_strerror(i32 noundef %19) #17
  %21 = call noalias ptr (ptr, ptr, ...) @wmem_strdup_printf(ptr noundef null, ptr noundef @.str.8, ptr noundef %17, ptr noundef %20)
  %22 = load ptr, ptr %8, align 8
  store ptr %21, ptr %22, align 8
  store i1 false, ptr %5, align 1
  store i32 1, ptr %12, align 4
  br label %43

23:                                               ; preds = %4
  %24 = load ptr, ptr %6, align 8
  %25 = load ptr, ptr %10, align 8
  %26 = load ptr, ptr %7, align 8
  %27 = load ptr, ptr %9, align 8
  %28 = call i32 @read_filters_file(ptr noundef %24, ptr noundef %25, ptr noundef %26, ptr noundef %27)
  store i32 %28, ptr %11, align 4
  %29 = load i32, ptr %11, align 4
  %30 = icmp ne i32 %29, 0
  br i1 %30, label %31, label %40

31:                                               ; preds = %23
  %32 = load ptr, ptr %6, align 8
  %33 = call ptr @__errno_location() #17
  %34 = load i32, ptr %33, align 4
  %35 = call ptr @g_strerror(i32 noundef %34) #17
  %36 = call noalias ptr (ptr, ptr, ...) @wmem_strdup_printf(ptr noundef null, ptr noundef @.str.9, ptr noundef %32, ptr noundef %35)
  %37 = load ptr, ptr %8, align 8
  store ptr %36, ptr %37, align 8
  %38 = load ptr, ptr %10, align 8
  %39 = call i32 @fclose(ptr noundef %38)
  store i1 false, ptr %5, align 1
  store i32 1, ptr %12, align 4
  br label %43

40:                                               ; preds = %23
  %41 = load ptr, ptr %10, align 8
  %42 = call i32 @fclose(ptr noundef %41)
  store i1 true, ptr %5, align 1
  store i32 1, ptr %12, align 4
  br label %43

43:                                               ; preds = %40, %31, %16
  call void @llvm.lifetime.end.p0(i64 4, ptr %11) #13
  call void @llvm.lifetime.end.p0(i64 8, ptr %10) #13
  %44 = load i1, ptr %5, align 1
  ret i1 %44
}