; Function Attrs: null_pointer_is_valid sspstrong uwtable
define noundef zeroext i1 @color_filters_import(ptr noundef %0, ptr noundef %1, ptr noundef writeonly captures(none) %2, ptr noundef readonly captures(none) %3) local_unnamed_addr #0 {
  %5 = tail call noalias ptr @fopen(ptr noundef %0, ptr noundef nonnull @.str.5)
  %6 = icmp eq ptr %5, null
  br i1 %6, label %7, label %12

7:                                                ; preds = %4
  %8 = tail call ptr @__errno_location() #15
  %9 = load i32, ptr %8, align 4
  %10 = tail call ptr @g_strerror(i32 noundef %9) #15
  %11 = tail call noalias ptr (ptr, ptr, ...) @wmem_strdup_printf(ptr noundef null, ptr noundef nonnull @.str.8, ptr noundef %0, ptr noundef %10)
  store ptr %11, ptr %2, align 8
  br label %22

12:                                               ; preds = %4
  %13 = tail call fastcc i32 @read_filters_file(ptr noundef %0, ptr noundef %5, ptr noundef %1, ptr noundef %3)
  %.not = icmp eq i32 %13, 0
  br i1 %.not, label %20, label %14

14:                                               ; preds = %12
  %15 = tail call ptr @__errno_location() #15
  %16 = load i32, ptr %15, align 4
  %17 = tail call ptr @g_strerror(i32 noundef %16) #15
  %18 = tail call noalias ptr (ptr, ptr, ...) @wmem_strdup_printf(ptr noundef null, ptr noundef nonnull @.str.9, ptr noundef %0, ptr noundef %17)
  store ptr %18, ptr %2, align 8
  %19 = tail call i32 @fclose(ptr noundef nonnull %5)
  br label %22

20:                                               ; preds = %12
  %21 = tail call i32 @fclose(ptr noundef nonnull %5)
  br label %22

22:                                               ; preds = %20, %14, %7
  %.0 = phi i1 [ false, %7 ], [ false, %14 ], [ true, %20 ]
  ret i1 %.0
}